target datalayout = "e-m:e-p270:32:32-p271:32:32-p272:64:64-i64:64-i128:128-f80:128-n8:16:32:64-S128"
target triple = "x86_64-pc-linux-gnu"

%class.VMRegImpl = type { i8 }
%class.VtableStub = type <{ ptr, i16, i16, i16, i8, i8 }>
%"struct.Atomic::LoadImpl" = type { i8 }
%"struct.Atomic::PlatformLoad" = type { i8 }

@_ZN10VtableStub18_receiver_locationE = hidden global ptr null, align 8
@_ZN11VtableStubs6_tableE = hidden global [256 x ptr] zeroinitializer, align 16
@all_VMRegs = external hidden global [610 x %class.VMRegImpl], align 16

; Function Attrs: mustprogress nounwind uwtable
define linkonce_odr hidden noundef ptr @_ZNK6Atomic12PlatformLoadILm8EEclIP10VtableStubEET_PVKS5_(ptr noundef nonnull align 1 dereferenceable(1) %0, ptr noundef %1) #1 comdat align 2 {
  %3 = alloca ptr, align 8
  %4 = alloca ptr, align 8
  store ptr %0, ptr %3, align 8
  store ptr %1, ptr %4, align 8
  %5 = load ptr, ptr %4, align 8
  %6 = load volatile ptr, ptr %5, align 8
  ret ptr %6
}

; Function Attrs: mustprogress nounwind uwtable
define linkonce_odr hidden noundef i32 @_Z12checked_castIilET_T0_(i64 noundef %0) #1 comdat {
  %2 = alloca i64, align 8
  %3 = alloca i32, align 4
  store i64 %0, ptr %2, align 8
  %4 = load i64, ptr %2, align 8
  %5 = trunc i64 %4 to i32
  store i32 %5, ptr %3, align 4
  %6 = load i32, ptr %3, align 4
  ret i32 %6
}

; Function Attrs: mustprogress nounwind uwtable
define linkonce_odr hidden noundef ptr @_ZN9VMRegImpl5firstEv() #1 comdat align 2 {
  ret ptr getelementptr inbounds (%class.VMRegImpl, ptr @all_VMRegs, i64 1)
}

; Function Attrs: mustprogress nounwind uwtable
define linkonce_odr hidden noundef zeroext i1 @_ZNK10VtableStub14is_vtable_stubEv(ptr noundef nonnull align 8 dereferenceable(15) %0) #1 comdat align 2 {
  %2 = alloca ptr, align 8
  store ptr %0, ptr %2, align 8
  %3 = load ptr, ptr %2, align 8
  %4 = getelementptr inbounds %class.VtableStub, ptr %3, i32 0, i32 4
  %5 = load i8, ptr %4, align 2
  %6 = icmp eq i8 %5, 1
  ret i1 %6
}

; Function Attrs: mustprogress nounwind uwtable
define linkonce_odr hidden noundef ptr @_ZNK6Atomic8LoadImplIP10VtableStubNS_12PlatformLoadILm8EEEvEclEPVKS2_(ptr noundef nonnull align 1 dereferenceable(1) %0, ptr noundef %1) #1 comdat align 2 {
  %3 = alloca ptr, align 8
  %4 = alloca ptr, align 8
  %5 = alloca %"struct.Atomic::PlatformLoad", align 1
  store ptr %0, ptr %3, align 8
  store ptr %1, ptr %4, align 8
  %6 = load ptr, ptr %4, align 8
  %7 = call noundef ptr @_ZNK6Atomic12PlatformLoadILm8EEclIP10VtableStubEET_PVKS5_(ptr noundef nonnull align 1 dereferenceable(1) %5, ptr noundef %6)
  ret ptr %7
}

; Function Attrs: mustprogress nounwind uwtable
define linkonce_odr hidden noundef i32 @_ZNK9VMRegImpl5valueEv(ptr noundef nonnull align 1 dereferenceable(1) %0) #1 comdat align 2 {
  %2 = alloca ptr, align 8
  store ptr %0, ptr %2, align 8
  %3 = load ptr, ptr %2, align 8
  %4 = call noundef ptr @_ZN9VMRegImpl5firstEv()
  %5 = ptrtoint ptr %3 to i64
  %6 = ptrtoint ptr %4 to i64
  %7 = sub i64 %5, %6
  %8 = call noundef i32 @_Z12checked_castIilET_T0_(i64 noundef %7)
  ret i32 %8
}

; Function Attrs: mustprogress nounwind uwtable
define linkonce_odr hidden noundef ptr @_ZN10VtableStub17receiver_locationEv() #1 comdat align 2 {
  %1 = load ptr, ptr @_ZN10VtableStub18_receiver_locationE, align 8
  ret ptr %1
}

; Function Attrs: mustprogress nounwind uwtable
define linkonce_odr hidden noundef ptr @_ZNK10VtableStub4nextEv(ptr noundef nonnull align 8 dereferenceable(15) %0) #1 comdat align 2 {
  %2 = alloca ptr, align 8
  store ptr %0, ptr %2, align 8
  %3 = load ptr, ptr %2, align 8
  %4 = getelementptr inbounds %class.VtableStub, ptr %3, i32 0, i32 0
  %5 = load ptr, ptr %4, align 8
  ret ptr %5
}

; Function Attrs: mustprogress nounwind uwtable
define linkonce_odr hidden noundef zeroext i1 @_ZNK10VtableStub7matchesEbi(ptr noundef nonnull align 8 dereferenceable(15) %0, i1 noundef zeroext %1, i32 noundef %2) #1 comdat align 2 {
  %4 = alloca ptr, align 8
  %5 = alloca i8, align 1
  %6 = alloca i32, align 4
  store ptr %0, ptr %4, align 8
  %7 = zext i1 %1 to i8
  store i8 %7, ptr %5, align 1
  store i32 %2, ptr %6, align 4
  %8 = load ptr, ptr %4, align 8
  %9 = getelementptr inbounds %class.VtableStub, ptr %8, i32 0, i32 1
  %10 = load i16, ptr %9, align 8
  %11 = sext i16 %10 to i32
  %12 = load i32, ptr %6, align 4
  %13 = icmp eq i32 %11, %12
  br i1 %13, label %14, label %21

14:                                               ; preds = %3
  %15 = call noundef zeroext i1 @_ZNK10VtableStub14is_vtable_stubEv(ptr noundef nonnull align 8 dereferenceable(15) %8)
  %16 = zext i1 %15 to i32
  %17 = load i8, ptr %5, align 1
  %18 = trunc i8 %17 to i1
  %19 = zext i1 %18 to i32
  %20 = icmp eq i32 %16, %19
  br label %21

21:                                               ; preds = %14, %3
  %22 = phi i1 [ false, %3 ], [ %20, %14 ]
  ret i1 %22
}

; Function Attrs: mustprogress nounwind uwtable
define linkonce_odr hidden noundef ptr @_ZN6Atomic4loadIP10VtableStubEET_PVKS3_(ptr noundef %0) #1 comdat align 2 {
  %2 = alloca ptr, align 8
  %3 = alloca %"struct.Atomic::LoadImpl", align 1
  store ptr %0, ptr %2, align 8
  %4 = load ptr, ptr %2, align 8
  %5 = call noundef ptr @_ZNK6Atomic8LoadImplIP10VtableStubNS_12PlatformLoadILm8EEEvEclEPVKS2_(ptr noundef nonnull align 1 dereferenceable(1) %3, ptr noundef %4)
  ret ptr %5
}

; Function Attrs: mustprogress nounwind uwtable
define linkonce_odr hidden noundef i32 @_ZN11VtableStubs4hashEbi(i1 noundef zeroext %0, i32 noundef %1) #1 comdat align 2 {
  %3 = alloca i8, align 1
  %4 = alloca i32, align 4
  %5 = alloca i32, align 4
  %6 = zext i1 %0 to i8
  store i8 %6, ptr %3, align 1
  store i32 %1, ptr %4, align 4
  %7 = load i32, ptr %4, align 4
  %8 = shl i32 %7, 2
  %9 = call noundef ptr @_ZN10VtableStub17receiver_locationEv()
  %10 = call noundef i32 @_ZNK9VMRegImpl5valueEv(ptr noundef nonnull align 1 dereferenceable(1) %9)
  %11 = xor i32 %8, %10
  %12 = load i32, ptr %4, align 4
  %13 = add nsw i32 %11, %12
  store i32 %13, ptr %5, align 4
  %14 = load i8, ptr %3, align 1
  %15 = trunc i8 %14 to i1
  br i1 %15, label %16, label %19

16:                                               ; preds = %2
  %17 = load i32, ptr %5, align 4
  %18 = xor i32 %17, -1
  br label %21

19:                                               ; preds = %2
  %20 = load i32, ptr %5, align 4
  br label %21

21:                                               ; preds = %19, %16
  %22 = phi i32 [ %18, %16 ], [ %20, %19 ]
  %23 = and i32 %22, 255
  ret i32 %23
}

; Function Attrs: mustprogress nounwind uwtable
define hidden noundef ptr @_ZN11VtableStubs6lookupEbi(i1 noundef zeroext %0, i32 noundef %1) #1 align 2 {
  %3 = alloca i8, align 1
  %4 = alloca i32, align 4
  %5 = alloca i32, align 4
  %6 = alloca ptr, align 8
  %7 = zext i1 %0 to i8
  store i8 %7, ptr %3, align 1
  store i32 %1, ptr %4, align 4
  %8 = load i8, ptr %3, align 1
  %9 = trunc i8 %8 to i1
  %10 = load i32, ptr %4, align 4
  %11 = call noundef i32 @_ZN11VtableStubs4hashEbi(i1 noundef zeroext %9, i32 noundef %10)
  store i32 %11, ptr %5, align 4
  %12 = load i32, ptr %5, align 4
  %13 = zext i32 %12 to i64
  %14 = getelementptr inbounds [256 x ptr], ptr @_ZN11VtableStubs6_tableE, i64 0, i64 %13
  %15 = call noundef ptr @_ZN6Atomic4loadIP10VtableStubEET_PVKS3_(ptr noundef %14)
  store ptr %15, ptr %6, align 8
  br label %16

16:                                               ; preds = %28, %2
  %17 = load ptr, ptr %6, align 8
  %18 = icmp ne ptr %17, null
  br i1 %18, label %19, label %26

19:                                               ; preds = %16
  %20 = load ptr, ptr %6, align 8
  %21 = load i8, ptr %3, align 1
  %22 = trunc i8 %21 to i1
  %23 = load i32, ptr %4, align 4
  %24 = call noundef zeroext i1 @_ZNK10VtableStub7matchesEbi(ptr noundef nonnull align 8 dereferenceable(15) %20, i1 noundef zeroext %22, i32 noundef %23)
  %25 = xor i1 %24, true
  br label %26

26:                                               ; preds = %19, %16
  %27 = phi i1 [ false, %16 ], [ %25, %19 ]
  br i1 %27, label %28, label %31

28:                                               ; preds = %26
  %29 = load ptr, ptr %6, align 8
  %30 = call noundef ptr @_ZNK10VtableStub4nextEv(ptr noundef nonnull align 8 dereferenceable(15) %29)
  store ptr %30, ptr %6, align 8
  br label %16, !llvm.loop !8

31:                                               ; preds = %26
  %32 = load ptr, ptr %6, align 8
  ret ptr %32
}