; Function Attrs: mustprogress nofree norecurse nounwind memory(readwrite, argmem: read) uwtable
define hidden noundef ptr @_ZN11VtableStubs6lookupEbi(i1 noundef zeroext %0, i32 noundef %1) local_unnamed_addr #4 align 2 {
  %3 = shl i32 %1, 2
  %4 = load ptr, ptr @_ZN10VtableStub18_receiver_locationE, align 8
  %5 = ptrtoint ptr %4 to i64
  %6 = trunc i64 %5 to i32
  %7 = sub i32 %6, ptrtoint (ptr getelementptr inbounds (i8, ptr @all_VMRegs, i64 1) to i32)
  %8 = xor i32 %7, %3
  %9 = add nsw i32 %8, %1
  %10 = sext i1 %0 to i32
  %11 = xor i32 %9, %10
  %12 = and i32 %11, 255
  %13 = zext nneg i32 %12 to i64
  %14 = getelementptr inbounds [256 x ptr], ptr @_ZN11VtableStubs6_tableE, i64 0, i64 %13
  %15 = load volatile ptr, ptr %14, align 8
  %.not8 = icmp eq ptr %15, null
  br i1 %.not8, label %.critedge, label %.lr.ph

.lr.ph:                                           ; preds = %2, %25
  %.09 = phi ptr [ %26, %25 ], [ %15, %2 ]
  %16 = getelementptr inbounds i8, ptr %.09, i64 8
  %17 = load i16, ptr %16, align 8
  %18 = sext i16 %17 to i32
  %19 = icmp eq i32 %18, %1
  %20 = getelementptr inbounds i8, ptr %.09, i64 14
  %21 = load i8, ptr %20, align 2
  %22 = icmp ne i8 %21, 1
  %23 = xor i1 %22, %0
  %24 = select i1 %19, i1 %23, i1 false
  br i1 %24, label %.critedge, label %25

25:                                               ; preds = %.lr.ph
  %26 = load ptr, ptr %.09, align 8
  %.not = icmp eq ptr %26, null
  br i1 %.not, label %.critedge, label %.lr.ph, !llvm.loop !8

.critedge:                                        ; preds = %.lr.ph, %25, %2
  %.0.lcssa = phi ptr [ null, %2 ], [ null, %25 ], [ %.09, %.lr.ph ]
  ret ptr %.0.lcssa
}